; Function Attrs: null_pointer_is_valid sspstrong uwtable
define internal i32 @frstrans_dissect_RequestUpdates_request(ptr noundef %0, i32 noundef %1, ptr noundef %2, ptr noundef %3, ptr noundef initializes((72, 80)) %4, ptr noundef %5) #0 {
  %7 = alloca i32, align 4
  %8 = getelementptr inbounds nuw i8, ptr %4, i64 72
  store ptr @.str.219, ptr %8, align 8
  %9 = load i32, ptr @hf_frstrans_frstrans_RequestUpdates_connection_guid, align 4
  %10 = tail call i32 @dissect_ndr_uuid_t(ptr noundef %0, i32 noundef %1, ptr noundef %2, ptr noundef %3, ptr noundef %4, ptr noundef %5, i32 noundef %9, ptr noundef null)
  %11 = tail call i32 @dissect_deferred_pointers(ptr noundef %2, ptr noundef %0, i32 noundef %10, ptr noundef %4, ptr noundef %5)
  %12 = load i32, ptr @hf_frstrans_frstrans_RequestUpdates_content_set_guid, align 4
  %13 = tail call i32 @dissect_ndr_uuid_t(ptr noundef %0, i32 noundef %11, ptr noundef %2, ptr noundef %3, ptr noundef %4, ptr noundef %5, i32 noundef %12, ptr noundef null)
  %14 = tail call i32 @dissect_deferred_pointers(ptr noundef %2, ptr noundef %0, i32 noundef %13, ptr noundef %4, ptr noundef %5)
  %15 = load i32, ptr @hf_frstrans_frstrans_RequestUpdates_credits_available, align 4
  %16 = tail call i32 @PIDL_dissect_uint32(ptr noundef %0, i32 noundef %14, ptr noundef %2, ptr noundef %3, ptr noundef %4, ptr noundef %5, i32 noundef %15, i32 noundef 0)
  %17 = tail call i32 @dissect_deferred_pointers(ptr noundef %2, ptr noundef %0, i32 noundef %16, ptr noundef %4, ptr noundef %5)
  %18 = load i32, ptr @hf_frstrans_frstrans_RequestUpdates_hash_requested, align 4
  %19 = tail call i32 @PIDL_dissect_uint32(ptr noundef %0, i32 noundef %17, ptr noundef %2, ptr noundef %3, ptr noundef %4, ptr noundef %5, i32 noundef %18, i32 noundef 0)
  %20 = tail call i32 @dissect_deferred_pointers(ptr noundef %2, ptr noundef %0, i32 noundef %19, ptr noundef %4, ptr noundef %5)
  %21 = load i32, ptr @hf_frstrans_frstrans_RequestUpdates_update_request_type, align 4
  call void @llvm.lifetime.start.p0(i64 4, ptr nonnull %7) #4
  store i32 0, ptr %7, align 4
  %22 = call i32 @dissect_ndr_uint1632(ptr noundef %0, i32 noundef %20, ptr noundef %2, ptr noundef %3, ptr noundef %4, ptr noundef %5, i32 noundef %21, ptr noundef nonnull %7)
  call void @llvm.lifetime.end.p0(i64 4, ptr nonnull %7) #4
  %23 = call i32 @dissect_deferred_pointers(ptr noundef %2, ptr noundef %0, i32 noundef %22, ptr noundef %4, ptr noundef %5)
  %24 = load i32, ptr @hf_frstrans_frstrans_RequestUpdates_version_vector_diff_count, align 4
  %25 = call i32 @PIDL_dissect_uint32(ptr noundef %0, i32 noundef %23, ptr noundef %2, ptr noundef %3, ptr noundef %4, ptr noundef %5, i32 noundef %24, i32 noundef 0)
  %26 = call i32 @dissect_deferred_pointers(ptr noundef %2, ptr noundef %0, i32 noundef %25, ptr noundef %4, ptr noundef %5)
  %27 = load i32, ptr @hf_frstrans_frstrans_RequestUpdates_version_vector_diff, align 4
  %28 = call i32 @dissect_ndr_toplevel_pointer(ptr noundef %0, i32 noundef %26, ptr noundef %2, ptr noundef %3, ptr noundef %4, ptr noundef %5, ptr noundef nonnull @frstrans_dissect_element_RequestUpdates_version_vector_diff_, i32 noundef 1, ptr noundef nonnull @.str.238, i32 noundef %27)
  %29 = call i32 @dissect_deferred_pointers(ptr noundef %2, ptr noundef %0, i32 noundef %28, ptr noundef %4, ptr noundef %5)
  ret i32 %29
}